target datalayout = "e-m:e-p270:32:32-p271:32:32-p272:64:64-i64:64-i128:128-f80:128-n8:16:32:64-S128"
target triple = "x86_64-pc-linux-gnu"

%struct.sqlite3_pcache_methods2 = type { i32, ptr, ptr, ptr, ptr, ptr, ptr, ptr, ptr, ptr, ptr, ptr, ptr }

@pcacheBase = internal global %struct.sqlite3_pcache_methods2 zeroinitializer, align 8
@pcachetraceOut = internal global ptr null, align 8

; Function Attrs: nounwind uwtable
define i32 @sqlite3PcacheTraceDeactivate() #0 {
  %1 = alloca i32, align 4
  call void @llvm.lifetime.start.p0(i64 4, ptr %1) #14
  store i32 0, ptr %1, align 4, !tbaa !3
  %2 = load ptr, ptr getelementptr inbounds nuw (%struct.sqlite3_pcache_methods2, ptr @pcacheBase, i32 0, i32 7), align 8, !tbaa !17
  %3 = icmp ne ptr %2, null
  br i1 %3, label %4, label %10

4:                                                ; preds = %0
  %5 = call i32 (i32, ...) @sqlite3_config(i32 noundef 18, ptr noundef @pcacheBase)
  store i32 %5, ptr %1, align 4, !tbaa !3
  %6 = load i32, ptr %1, align 4, !tbaa !3
  %7 = icmp eq i32 %6, 0
  br i1 %7, label %8, label %9

8:                                                ; preds = %4
  call void @llvm.memset.p0.i64(ptr align 8 @pcacheBase, i8 0, i64 104, i1 false)
  br label %9

9:                                                ; preds = %8, %4
  br label %10

10:                                               ; preds = %9, %0
  store ptr null, ptr @pcachetraceOut, align 8, !tbaa !12
  %11 = load i32, ptr %1, align 4, !tbaa !3
  call void @llvm.lifetime.end.p0(i64 4, ptr %1) #14
  ret i32 %11
}