; Function Attrs: nounwind uwtable
define i32 @sqlite3PcacheTraceDeactivate() local_unnamed_addr #2 {
  %1 = load ptr, ptr getelementptr inbounds nuw (i8, ptr @pcacheBase, i64 56), align 8, !tbaa !16
  %.not = icmp eq ptr %1, null
  br i1 %.not, label %6, label %2

2:                                                ; preds = %0
  %3 = tail call i32 (i32, ...) @sqlite3_config(i32 noundef 18, ptr noundef nonnull @pcacheBase) #43
  %4 = icmp eq i32 %3, 0
  br i1 %4, label %5, label %6

5:                                                ; preds = %2
  tail call void @llvm.memset.p0.i64(ptr noundef nonnull align 8 dereferenceable(104) @pcacheBase, i8 0, i64 104, i1 false)
  br label %6

6:                                                ; preds = %2, %5, %0
  %.0 = phi i32 [ 0, %5 ], [ %3, %2 ], [ 0, %0 ]
  store ptr null, ptr @pcachetraceOut, align 8, !tbaa !14
  ret i32 %.0
}